target datalayout = "e-m:e-p270:32:32-p271:32:32-p272:64:64-i64:64-i128:128-f80:128-n8:16:32:64-S128"
target triple = "x86_64-unknown-linux-gnu"

%"class.std::__cxx11::basic_string" = type { %"struct.std::__cxx11::basic_string<char>::_Alloc_hider", i64, %union.anon }
%"struct.std::__cxx11::basic_string<char>::_Alloc_hider" = type { ptr }
%union.anon = type { i64, [8 x i8] }
%"class.cvc5::CVC5ApiException" = type { %"class.std::exception", %"class.std::__cxx11::basic_string" }
%"class.std::exception" = type { ptr }
%"class.cvc5::parser::ParserException" = type { %"class.cvc5::CVC5ApiException", %"class.std::__cxx11::basic_string", i64, i64 }

@.str.23 = private unnamed_addr constant [14 x i8] c"Parse Error: \00", align 1
@.str.24 = private unnamed_addr constant [2 x i8] c":\00", align 1
@.str.25 = private unnamed_addr constant [2 x i8] c".\00", align 1
@.str.26 = private unnamed_addr constant [3 x i8] c": \00", align 1

; Function Attrs: mustprogress nounwind uwtable
define linkonce_odr hidden noundef nonnull align 8 dereferenceable(32) ptr @_ZNK4cvc516CVC5ApiException10getMessageB5cxx11Ev(ptr noundef nonnull align 8 dereferenceable(40) %this) #5 comdat align 2 {
entry:
  %this.addr = alloca ptr, align 8
  store ptr %this, ptr %this.addr, align 8
  %this1 = load ptr, ptr %this.addr, align 8
  %d_msg = getelementptr inbounds %"class.cvc5::CVC5ApiException", ptr %this1, i32 0, i32 1
  ret ptr %d_msg
}

; Function Attrs: mustprogress uwtable
define void @_ZNK4cvc56parser15ParserException8toStreamERSo(ptr noundef nonnull align 8 dereferenceable(88) %this, ptr noundef nonnull align 8 dereferenceable(8) %os) unnamed_addr #4 align 2 {
entry:
  %this.addr = alloca ptr, align 8
  %os.addr = alloca ptr, align 8
  store ptr %this, ptr %this.addr, align 8
  store ptr %os, ptr %os.addr, align 8
  %this1 = load ptr, ptr %this.addr, align 8
  %d_line = getelementptr inbounds %"class.cvc5::parser::ParserException", ptr %this1, i32 0, i32 2
  %0 = load i64, ptr %d_line, align 8
  %cmp = icmp ugt i64 %0, 0
  br i1 %cmp, label %if.then, label %if.else

if.then:                                          ; preds = %entry
  %1 = load ptr, ptr %os.addr, align 8
  %call = call noundef nonnull align 8 dereferenceable(8) ptr @_ZStlsISt11char_traitsIcEERSt13basic_ostreamIcT_ES5_PKc(ptr noundef nonnull align 8 dereferenceable(8) %1, ptr noundef @.str.23)
  %d_filename = getelementptr inbounds %"class.cvc5::parser::ParserException", ptr %this1, i32 0, i32 1
  %call2 = call noundef nonnull align 8 dereferenceable(8) ptr @_ZStlsIcSt11char_traitsIcESaIcEERSt13basic_ostreamIT_T0_ES7_RKNSt7__cxx1112basic_stringIS4_S5_T1_EE(ptr noundef nonnull align 8 dereferenceable(8) %call, ptr noundef nonnull align 8 dereferenceable(32) %d_filename)
  %call3 = call noundef nonnull align 8 dereferenceable(8) ptr @_ZStlsISt11char_traitsIcEERSt13basic_ostreamIcT_ES5_PKc(ptr noundef nonnull align 8 dereferenceable(8) %call2, ptr noundef @.str.24)
  %d_line4 = getelementptr inbounds %"class.cvc5::parser::ParserException", ptr %this1, i32 0, i32 2
  %2 = load i64, ptr %d_line4, align 8
  %call5 = call noundef nonnull align 8 dereferenceable(8) ptr @_ZNSolsEm(ptr noundef nonnull align 8 dereferenceable(8) %call3, i64 noundef %2)
  %call6 = call noundef nonnull align 8 dereferenceable(8) ptr @_ZStlsISt11char_traitsIcEERSt13basic_ostreamIcT_ES5_PKc(ptr noundef nonnull align 8 dereferenceable(8) %call5, ptr noundef @.str.25)
  %d_column = getelementptr inbounds %"class.cvc5::parser::ParserException", ptr %this1, i32 0, i32 3
  %3 = load i64, ptr %d_column, align 8
  %call7 = call noundef nonnull align 8 dereferenceable(8) ptr @_ZNSolsEm(ptr noundef nonnull align 8 dereferenceable(8) %call6, i64 noundef %3)
  %call8 = call noundef nonnull align 8 dereferenceable(8) ptr @_ZStlsISt11char_traitsIcEERSt13basic_ostreamIcT_ES5_PKc(ptr noundef nonnull align 8 dereferenceable(8) %call7, ptr noundef @.str.26)
  %call9 = call noundef nonnull align 8 dereferenceable(32) ptr @_ZNK4cvc516CVC5ApiException10getMessageB5cxx11Ev(ptr noundef nonnull align 8 dereferenceable(40) %this1)
  %call10 = call noundef nonnull align 8 dereferenceable(8) ptr @_ZStlsIcSt11char_traitsIcESaIcEERSt13basic_ostreamIT_T0_ES7_RKNSt7__cxx1112basic_stringIS4_S5_T1_EE(ptr noundef nonnull align 8 dereferenceable(8) %call8, ptr noundef nonnull align 8 dereferenceable(32) %call9)
  br label %if.end

if.else:                                          ; preds = %entry
  %4 = load ptr, ptr %os.addr, align 8
  %call11 = call noundef nonnull align 8 dereferenceable(8) ptr @_ZStlsISt11char_traitsIcEERSt13basic_ostreamIcT_ES5_PKc(ptr noundef nonnull align 8 dereferenceable(8) %4, ptr noundef @.str.23)
  %call12 = call noundef nonnull align 8 dereferenceable(32) ptr @_ZNK4cvc516CVC5ApiException10getMessageB5cxx11Ev(ptr noundef nonnull align 8 dereferenceable(40) %this1)
  %call13 = call noundef nonnull align 8 dereferenceable(8) ptr @_ZStlsIcSt11char_traitsIcESaIcEERSt13basic_ostreamIT_T0_ES7_RKNSt7__cxx1112basic_stringIS4_S5_T1_EE(ptr noundef nonnull align 8 dereferenceable(8) %call11, ptr noundef nonnull align 8 dereferenceable(32) %call12)
  br label %if.end

if.end:                                           ; preds = %if.else, %if.then
  ret void
}