; Function Attrs: mustprogress uwtable
define void @_ZNK4cvc56parser15ParserException8toStreamERSo(ptr noundef nonnull align 8 dereferenceable(88) %this, ptr noundef nonnull align 8 dereferenceable(8) %os) unnamed_addr #3 align 2 {
entry:
  %d_line = getelementptr inbounds i8, ptr %this, i64 72
  %0 = load i64, ptr %d_line, align 8
  %cmp.not = icmp eq i64 %0, 0
  %call11 = tail call noundef nonnull align 8 dereferenceable(8) ptr @_ZStlsISt11char_traitsIcEERSt13basic_ostreamIcT_ES5_PKc(ptr noundef nonnull align 8 dereferenceable(8) %os, ptr noundef nonnull @.str.23)
  br i1 %cmp.not, label %if.end, label %if.then

if.then:                                          ; preds = %entry
  %d_filename = getelementptr inbounds i8, ptr %this, i64 40
  %call2 = tail call noundef nonnull align 8 dereferenceable(8) ptr @_ZStlsIcSt11char_traitsIcESaIcEERSt13basic_ostreamIT_T0_ES7_RKNSt7__cxx1112basic_stringIS4_S5_T1_EE(ptr noundef nonnull align 8 dereferenceable(8) %call11, ptr noundef nonnull align 8 dereferenceable(32) %d_filename)
  %call3 = tail call noundef nonnull align 8 dereferenceable(8) ptr @_ZStlsISt11char_traitsIcEERSt13basic_ostreamIcT_ES5_PKc(ptr noundef nonnull align 8 dereferenceable(8) %call2, ptr noundef nonnull @.str.24)
  %1 = load i64, ptr %d_line, align 8
  %call5 = tail call noundef nonnull align 8 dereferenceable(8) ptr @_ZNSolsEm(ptr noundef nonnull align 8 dereferenceable(8) %call3, i64 noundef %1)
  %call6 = tail call noundef nonnull align 8 dereferenceable(8) ptr @_ZStlsISt11char_traitsIcEERSt13basic_ostreamIcT_ES5_PKc(ptr noundef nonnull align 8 dereferenceable(8) %call5, ptr noundef nonnull @.str.25)
  %d_column = getelementptr inbounds i8, ptr %this, i64 80
  %2 = load i64, ptr %d_column, align 8
  %call7 = tail call noundef nonnull align 8 dereferenceable(8) ptr @_ZNSolsEm(ptr noundef nonnull align 8 dereferenceable(8) %call6, i64 noundef %2)
  %call8 = tail call noundef nonnull align 8 dereferenceable(8) ptr @_ZStlsISt11char_traitsIcEERSt13basic_ostreamIcT_ES5_PKc(ptr noundef nonnull align 8 dereferenceable(8) %call7, ptr noundef nonnull @.str.26)
  br label %if.end

if.end:                                           ; preds = %entry, %if.then
  %call11.sink = phi ptr [ %call8, %if.then ], [ %call11, %entry ]
  %d_msg.i2 = getelementptr inbounds i8, ptr %this, i64 8
  %call13 = tail call noundef nonnull align 8 dereferenceable(8) ptr @_ZStlsIcSt11char_traitsIcESaIcEERSt13basic_ostreamIT_T0_ES7_RKNSt7__cxx1112basic_stringIS4_S5_T1_EE(ptr noundef nonnull align 8 dereferenceable(8) %call11.sink, ptr noundef nonnull align 8 dereferenceable(32) %d_msg.i2)
  ret void
}